target datalayout = "e-m:e-p270:32:32-p271:32:32-p272:64:64-i64:64-i128:128-f80:128-n8:16:32:64-S128"
target triple = "x86_64-pc-linux-gnu"

%struct.ArrayType = type { i32, i32, i32, i32 }

@.str.1 = private unnamed_addr constant [13 x i8] c"arrayutils.c\00", align 1
@.str.3 = private unnamed_addr constant [36 x i8] c"typmod array must be type cstring[]\00", align 1
@__func__.ArrayGetIntegerTypmods = private unnamed_addr constant [23 x i8] c"ArrayGetIntegerTypmods\00", align 1
@.str.4 = private unnamed_addr constant [37 x i8] c"typmod array must be one-dimensional\00", align 1
@.str.5 = private unnamed_addr constant [36 x i8] c"typmod array must not contain nulls\00", align 1

; Function Attrs: inlinehint nounwind uwtable
define internal ptr @DatumGetPointer(i64 noundef %0) #3 {
  %2 = alloca i64, align 8
  store i64 %0, ptr %2, align 8
  %3 = load i64, ptr %2, align 8
  %4 = inttoptr i64 %3 to ptr
  ret ptr %4
}

; Function Attrs: inlinehint nounwind uwtable
define internal ptr @DatumGetCString(i64 noundef %0) #3 {
  %2 = alloca i64, align 8
  store i64 %0, ptr %2, align 8
  %3 = load i64, ptr %2, align 8
  %4 = call ptr @DatumGetPointer(i64 noundef %3)
  ret ptr %4
}

; Function Attrs: nounwind uwtable
define dso_local ptr @ArrayGetIntegerTypmods(ptr noundef %0, ptr noundef %1) #0 {
  %3 = alloca ptr, align 8
  %4 = alloca ptr, align 8
  %5 = alloca ptr, align 8
  %6 = alloca ptr, align 8
  %7 = alloca i32, align 4
  store ptr %0, ptr %3, align 8
  store ptr %1, ptr %4, align 8
  call void @llvm.lifetime.start.p0(i64 8, ptr %5) #6
  call void @llvm.lifetime.start.p0(i64 8, ptr %6) #6
  call void @llvm.lifetime.start.p0(i64 4, ptr %7) #6
  %8 = load ptr, ptr %3, align 8
  %9 = getelementptr inbounds nuw %struct.ArrayType, ptr %8, i32 0, i32 3
  %10 = load i32, ptr %9, align 4
  %11 = icmp ne i32 %10, 2275
  br i1 %11, label %12, label %24

12:                                               ; preds = %2
  br label %13

13:                                               ; preds = %12
  br i1 true, label %14, label %16

14:                                               ; preds = %13
  %15 = call zeroext i1 @errstart_cold(i32 noundef 21, ptr noundef null) #7
  br i1 %15, label %18, label %21

16:                                               ; preds = %13
  %17 = call zeroext i1 @errstart(i32 noundef 21, ptr noundef null)
  br i1 %17, label %18, label %21

18:                                               ; preds = %16, %14
  %19 = call i32 @errcode(i32 noundef 352845954)
  %20 = call i32 (ptr, ...) @errmsg(ptr noundef @.str.3)
  call void @errfinish(ptr noundef @.str.1, i32 noundef 242, ptr noundef @__func__.ArrayGetIntegerTypmods)
  br label %21

21:                                               ; preds = %18, %16, %14
  unreachable

22:                                               ; No predecessors!
  br label %23

23:                                               ; preds = %22
  br label %24

24:                                               ; preds = %23, %2
  %25 = load ptr, ptr %3, align 8
  %26 = getelementptr inbounds nuw %struct.ArrayType, ptr %25, i32 0, i32 1
  %27 = load i32, ptr %26, align 4
  %28 = icmp ne i32 %27, 1
  br i1 %28, label %29, label %41

29:                                               ; preds = %24
  br label %30

30:                                               ; preds = %29
  br i1 true, label %31, label %33

31:                                               ; preds = %30
  %32 = call zeroext i1 @errstart_cold(i32 noundef 21, ptr noundef null) #7
  br i1 %32, label %35, label %38

33:                                               ; preds = %30
  %34 = call zeroext i1 @errstart(i32 noundef 21, ptr noundef null)
  br i1 %34, label %35, label %38

35:                                               ; preds = %33, %31
  %36 = call i32 @errcode(i32 noundef 352845954)
  %37 = call i32 (ptr, ...) @errmsg(ptr noundef @.str.4)
  call void @errfinish(ptr noundef @.str.1, i32 noundef 247, ptr noundef @__func__.ArrayGetIntegerTypmods)
  br label %38

38:                                               ; preds = %35, %33, %31
  unreachable

39:                                               ; No predecessors!
  br label %40

40:                                               ; preds = %39
  br label %41

41:                                               ; preds = %40, %24
  %42 = load ptr, ptr %3, align 8
  %43 = call zeroext i1 @array_contains_nulls(ptr noundef %42)
  br i1 %43, label %44, label %56

44:                                               ; preds = %41
  br label %45

45:                                               ; preds = %44
  br i1 true, label %46, label %48

46:                                               ; preds = %45
  %47 = call zeroext i1 @errstart_cold(i32 noundef 21, ptr noundef null) #7
  br i1 %47, label %50, label %53

48:                                               ; preds = %45
  %49 = call zeroext i1 @errstart(i32 noundef 21, ptr noundef null)
  br i1 %49, label %50, label %53

50:                                               ; preds = %48, %46
  %51 = call i32 @errcode(i32 noundef 67108994)
  %52 = call i32 (ptr, ...) @errmsg(ptr noundef @.str.5)
  call void @errfinish(ptr noundef @.str.1, i32 noundef 252, ptr noundef @__func__.ArrayGetIntegerTypmods)
  br label %53

53:                                               ; preds = %50, %48, %46
  unreachable

54:                                               ; No predecessors!
  br label %55

55:                                               ; preds = %54
  br label %56

56:                                               ; preds = %55, %41
  %57 = load ptr, ptr %3, align 8
  %58 = load ptr, ptr %4, align 8
  call void @deconstruct_array_builtin(ptr noundef %57, i32 noundef 2275, ptr noundef %6, ptr noundef null, ptr noundef %58)
  %59 = load ptr, ptr %4, align 8
  %60 = load i32, ptr %59, align 4
  %61 = sext i32 %60 to i64
  %62 = mul i64 %61, 4
  %63 = call ptr @palloc(i64 noundef %62)
  store ptr %63, ptr %5, align 8
  store i32 0, ptr %7, align 4
  br label %64

64:                                               ; preds = %81, %56
  %65 = load i32, ptr %7, align 4
  %66 = load ptr, ptr %4, align 8
  %67 = load i32, ptr %66, align 4
  %68 = icmp slt i32 %65, %67
  br i1 %68, label %69, label %84

69:                                               ; preds = %64
  %70 = load ptr, ptr %6, align 8
  %71 = load i32, ptr %7, align 4
  %72 = sext i32 %71 to i64
  %73 = getelementptr inbounds i64, ptr %70, i64 %72
  %74 = load i64, ptr %73, align 8
  %75 = call ptr @DatumGetCString(i64 noundef %74)
  %76 = call i32 @pg_strtoint32(ptr noundef %75)
  %77 = load ptr, ptr %5, align 8
  %78 = load i32, ptr %7, align 4
  %79 = sext i32 %78 to i64
  %80 = getelementptr inbounds i32, ptr %77, i64 %79
  store i32 %76, ptr %80, align 4
  br label %81

81:                                               ; preds = %69
  %82 = load i32, ptr %7, align 4
  %83 = add i32 %82, 1
  store i32 %83, ptr %7, align 4
  br label %64, !llvm.loop !13

84:                                               ; preds = %64
  %85 = load ptr, ptr %6, align 8
  call void @pfree(ptr noundef %85)
  %86 = load ptr, ptr %5, align 8
  call void @llvm.lifetime.end.p0(i64 4, ptr %7) #6
  call void @llvm.lifetime.end.p0(i64 8, ptr %6) #6
  call void @llvm.lifetime.end.p0(i64 8, ptr %5) #6
  ret ptr %86
}