; Function Attrs: nounwind uwtable
define dso_local ptr @ArrayGetIntegerTypmods(ptr noundef %0, ptr noundef %1) local_unnamed_addr #2 {
  %3 = alloca ptr, align 8
  call void @llvm.lifetime.start.p0(i64 8, ptr nonnull %3) #8
  %4 = getelementptr inbounds nuw i8, ptr %0, i64 12
  %5 = load i32, ptr %4, align 4
  %.not = icmp eq i32 %5, 2275
  br i1 %.not, label %10, label %6

6:                                                ; preds = %2
  %7 = tail call zeroext i1 @errstart_cold(i32 noundef 21, ptr noundef null) #9
  tail call void @llvm.assume(i1 %7)
  %8 = tail call i32 @errcode(i32 noundef 352845954) #8
  %9 = tail call i32 (ptr, ...) @errmsg(ptr noundef nonnull @.str.3) #8
  tail call void @errfinish(ptr noundef nonnull @.str.1, i32 noundef 242, ptr noundef nonnull @__func__.ArrayGetIntegerTypmods) #8
  unreachable

10:                                               ; preds = %2
  %11 = getelementptr inbounds nuw i8, ptr %0, i64 4
  %12 = load i32, ptr %11, align 4
  %.not12 = icmp eq i32 %12, 1
  br i1 %.not12, label %17, label %13

13:                                               ; preds = %10
  %14 = tail call zeroext i1 @errstart_cold(i32 noundef 21, ptr noundef null) #9
  tail call void @llvm.assume(i1 %14)
  %15 = tail call i32 @errcode(i32 noundef 352845954) #8
  %16 = tail call i32 (ptr, ...) @errmsg(ptr noundef nonnull @.str.4) #8
  tail call void @errfinish(ptr noundef nonnull @.str.1, i32 noundef 247, ptr noundef nonnull @__func__.ArrayGetIntegerTypmods) #8
  unreachable

17:                                               ; preds = %10
  %18 = tail call zeroext i1 @array_contains_nulls(ptr noundef nonnull %0) #8
  br i1 %18, label %19, label %23

19:                                               ; preds = %17
  %20 = tail call zeroext i1 @errstart_cold(i32 noundef 21, ptr noundef null) #9
  tail call void @llvm.assume(i1 %20)
  %21 = tail call i32 @errcode(i32 noundef 67108994) #8
  %22 = tail call i32 (ptr, ...) @errmsg(ptr noundef nonnull @.str.5) #8
  tail call void @errfinish(ptr noundef nonnull @.str.1, i32 noundef 252, ptr noundef nonnull @__func__.ArrayGetIntegerTypmods) #8
  unreachable

23:                                               ; preds = %17
  call void @deconstruct_array_builtin(ptr noundef nonnull %0, i32 noundef 2275, ptr noundef nonnull %3, ptr noundef null, ptr noundef %1) #8
  %24 = load i32, ptr %1, align 4
  %25 = sext i32 %24 to i64
  %26 = shl nsw i64 %25, 2
  %27 = call ptr @palloc(i64 noundef %26) #8
  %28 = load i32, ptr %1, align 4
  %29 = icmp sgt i32 %28, 0
  br i1 %29, label %.lr.ph, label %._crit_edge

.lr.ph:                                           ; preds = %23, %.lr.ph
  %indvars.iv = phi i64 [ %indvars.iv.next, %.lr.ph ], [ 0, %23 ]
  %30 = load ptr, ptr %3, align 8
  %31 = getelementptr inbounds nuw i64, ptr %30, i64 %indvars.iv
  %32 = load i64, ptr %31, align 8
  %33 = inttoptr i64 %32 to ptr
  %34 = call i32 @pg_strtoint32(ptr noundef %33) #8
  %35 = getelementptr inbounds nuw i32, ptr %27, i64 %indvars.iv
  store i32 %34, ptr %35, align 4
  %indvars.iv.next = add nuw nsw i64 %indvars.iv, 1
  %36 = load i32, ptr %1, align 4
  %37 = sext i32 %36 to i64
  %38 = icmp slt i64 %indvars.iv.next, %37
  br i1 %38, label %.lr.ph, label %._crit_edge, !llvm.loop !13

._crit_edge:                                      ; preds = %.lr.ph, %23
  %39 = load ptr, ptr %3, align 8
  call void @pfree(ptr noundef %39) #8
  call void @llvm.lifetime.end.p0(i64 8, ptr nonnull %3) #8
  ret ptr %27
}